; Function Attrs: nounwind sspstrong uwtable
define internal noundef i64 @rb_zstream_reset(i64 noundef %0) #0 {
  %2 = tail call ptr @rb_check_typeddata(i64 noundef %0, ptr noundef nonnull @zstream_data_type) #18
  %3 = load i64, ptr %2, align 8, !tbaa !42
  %4 = and i64 %3, 1
  %.not.i = icmp eq i64 %4, 0
  br i1 %.not.i, label %5, label %get_zstream.exit

5:                                                ; preds = %1
  %6 = load i64, ptr @cZError, align 8, !tbaa !6
  tail call void (i64, ptr, ...) @rb_raise(i64 noundef %6, ptr noundef nonnull @.str.150) #19
  unreachable

get_zstream.exit:                                 ; preds = %1
  %7 = getelementptr inbounds nuw i8, ptr %2, i64 144
  %8 = load ptr, ptr %7, align 8, !tbaa !56
  %9 = load ptr, ptr %8, align 8, !tbaa !57
  %10 = getelementptr inbounds nuw i8, ptr %2, i64 32
  %11 = tail call i32 %9(ptr noundef nonnull %10) #18
  %.not.i1 = icmp eq i32 %11, 0
  br i1 %.not.i1, label %15, label %12

12:                                               ; preds = %get_zstream.exit
  %13 = getelementptr inbounds nuw i8, ptr %2, i64 80
  %14 = load ptr, ptr %13, align 8, !tbaa !59
  tail call fastcc void @raise_zlib_error(i32 noundef %11, ptr noundef %14) #20
  unreachable

15:                                               ; preds = %get_zstream.exit
  store i64 1, ptr %2, align 8, !tbaa !42
  %16 = getelementptr inbounds nuw i8, ptr %2, i64 8
  store i64 4, ptr %16, align 8, !tbaa !43
  %17 = getelementptr inbounds nuw i8, ptr %2, i64 56
  store ptr null, ptr %17, align 8, !tbaa !47
  %18 = getelementptr inbounds nuw i8, ptr %2, i64 64
  store i32 0, ptr %18, align 8, !tbaa !36
  %19 = getelementptr inbounds nuw i8, ptr %2, i64 16
  %20 = load i64, ptr %19, align 8, !tbaa !51
  %21 = icmp eq i64 %20, 4
  br i1 %21, label %29, label %22

22:                                               ; preds = %15
  %23 = inttoptr i64 %20 to ptr
  %24 = getelementptr inbounds nuw i8, ptr %23, i64 8
  %25 = load i64, ptr %24, align 8, !tbaa !60
  %26 = icmp eq i64 %25, 0
  br i1 %26, label %27, label %29

27:                                               ; preds = %22
  %28 = tail call i64 @rb_str_resize(i64 noundef %20, i64 noundef 0) #18
  br label %zstream_reset.exit

29:                                               ; preds = %22, %15
  store i64 4, ptr %19, align 8, !tbaa !51
  br label %zstream_reset.exit

zstream_reset.exit:                               ; preds = %27, %29
  ret i64 4
}